target datalayout = "e-m:e-p270:32:32-p271:32:32-p272:64:64-i64:64-i128:128-f80:128-n8:16:32:64-S128"
target triple = "x86_64-pc-linux-gnu"

%struct.GetBitContext = type { ptr, ptr, i32, i32, i32 }
%struct.H266RawNALUnitHeader = type { i8, i8, i8, i8 }
%struct.H266RawAUD = type { %struct.H266RawNALUnitHeader, i8, i8 }

@.str.112 = private unnamed_addr constant [18 x i8] c"rbsp_stop_one_bit\00", align 1
@.str.113 = private unnamed_addr constant [24 x i8] c"rbsp_alignment_zero_bit\00", align 1
@.str.207 = private unnamed_addr constant [22 x i8] c"Access Unit Delimiter\00", align 1
@.str.1183 = private unnamed_addr constant [21 x i8] c"aud_irap_or_gdr_flag\00", align 1
@.str.1184 = private unnamed_addr constant [13 x i8] c"aud_pic_type\00", align 1

; Function Attrs: inlinehint nounwind uwtable
define internal i32 @get_bits_count(ptr noundef %0) #6 {
  %2 = alloca ptr, align 8
  store ptr %0, ptr %2, align 8, !tbaa !196
  %3 = load ptr, ptr %2, align 8, !tbaa !196
  %4 = getelementptr inbounds nuw %struct.GetBitContext, ptr %3, i32 0, i32 2
  %5 = load i32, ptr %4, align 8, !tbaa !202
  ret i32 %5
}

; Function Attrs: nounwind uwtable
define internal i32 @cbs_h266_read_rbsp_trailing_bits(ptr noundef %0, ptr noundef %1) #0 {
  %3 = alloca i32, align 4
  %4 = alloca ptr, align 8
  %5 = alloca ptr, align 8
  %6 = alloca i32, align 4
  %7 = alloca i32, align 4
  %8 = alloca i32, align 4
  %9 = alloca i32, align 4
  %10 = alloca i32, align 4
  %11 = alloca i32, align 4
  store ptr %0, ptr %4, align 8, !tbaa !4
  store ptr %1, ptr %5, align 8, !tbaa !196
  call void @llvm.lifetime.start.p0(i64 4, ptr %6) #11
  br label %12

12:                                               ; preds = %2
  call void @llvm.lifetime.start.p0(i64 4, ptr %7) #11
  store i32 1, ptr %7, align 4, !tbaa !11
  br label %13

13:                                               ; preds = %12
  call void @llvm.lifetime.start.p0(i64 4, ptr %8) #11
  br label %14

14:                                               ; preds = %13
  %15 = load ptr, ptr %4, align 8, !tbaa !4
  %16 = load ptr, ptr %5, align 8, !tbaa !196
  %17 = call i32 @ff_cbs_read_unsigned(ptr noundef %15, ptr noundef %16, i32 noundef 1, ptr noundef @.str.112, ptr noundef null, ptr noundef %8, i32 noundef 1, i32 noundef 1)
  store i32 %17, ptr %6, align 4, !tbaa !11
  %18 = load i32, ptr %6, align 4, !tbaa !11
  %19 = icmp slt i32 %18, 0
  br i1 %19, label %20, label %22

20:                                               ; preds = %14
  %21 = load i32, ptr %6, align 4, !tbaa !11
  store i32 %21, ptr %3, align 4
  store i32 1, ptr %9, align 4
  br label %26

22:                                               ; preds = %14
  br label %23

23:                                               ; preds = %22
  br label %24

24:                                               ; preds = %23
  %25 = load i32, ptr %8, align 4, !tbaa !11
  store i32 %25, ptr %7, align 4, !tbaa !11
  store i32 0, ptr %9, align 4
  br label %26

26:                                               ; preds = %24, %20
  call void @llvm.lifetime.end.p0(i64 4, ptr %8) #11
  %27 = load i32, ptr %9, align 4
  switch i32 %27, label %31 [
    i32 0, label %28
  ]

28:                                               ; preds = %26
  br label %29

29:                                               ; preds = %28
  br label %30

30:                                               ; preds = %29
  store i32 0, ptr %9, align 4
  br label %31

31:                                               ; preds = %30, %26
  call void @llvm.lifetime.end.p0(i64 4, ptr %7) #11
  %32 = load i32, ptr %9, align 4
  switch i32 %32, label %67 [
    i32 0, label %33
  ]

33:                                               ; preds = %31
  br label %34

34:                                               ; preds = %33
  br label %35

35:                                               ; preds = %34
  br label %36

36:                                               ; preds = %65, %35
  %37 = load ptr, ptr %5, align 8, !tbaa !196
  %38 = call i32 @get_bits_count(ptr noundef %37)
  %39 = srem i32 %38, 8
  %40 = icmp ne i32 %39, 0
  br i1 %40, label %41, label %66

41:                                               ; preds = %36
  br label %42

42:                                               ; preds = %41
  call void @llvm.lifetime.start.p0(i64 4, ptr %10) #11
  store i32 0, ptr %10, align 4, !tbaa !11
  br label %43

43:                                               ; preds = %42
  call void @llvm.lifetime.start.p0(i64 4, ptr %11) #11
  br label %44

44:                                               ; preds = %43
  %45 = load ptr, ptr %4, align 8, !tbaa !4
  %46 = load ptr, ptr %5, align 8, !tbaa !196
  %47 = call i32 @ff_cbs_read_unsigned(ptr noundef %45, ptr noundef %46, i32 noundef 1, ptr noundef @.str.113, ptr noundef null, ptr noundef %11, i32 noundef 0, i32 noundef 0)
  store i32 %47, ptr %6, align 4, !tbaa !11
  %48 = load i32, ptr %6, align 4, !tbaa !11
  %49 = icmp slt i32 %48, 0
  br i1 %49, label %50, label %52

50:                                               ; preds = %44
  %51 = load i32, ptr %6, align 4, !tbaa !11
  store i32 %51, ptr %3, align 4
  store i32 1, ptr %9, align 4
  br label %56

52:                                               ; preds = %44
  br label %53

53:                                               ; preds = %52
  br label %54

54:                                               ; preds = %53
  %55 = load i32, ptr %11, align 4, !tbaa !11
  store i32 %55, ptr %10, align 4, !tbaa !11
  store i32 0, ptr %9, align 4
  br label %56

56:                                               ; preds = %54, %50
  call void @llvm.lifetime.end.p0(i64 4, ptr %11) #11
  %57 = load i32, ptr %9, align 4
  switch i32 %57, label %61 [
    i32 0, label %58
  ]

58:                                               ; preds = %56
  br label %59

59:                                               ; preds = %58
  br label %60

60:                                               ; preds = %59
  store i32 0, ptr %9, align 4
  br label %61

61:                                               ; preds = %60, %56
  call void @llvm.lifetime.end.p0(i64 4, ptr %10) #11
  %62 = load i32, ptr %9, align 4
  switch i32 %62, label %67 [
    i32 0, label %63
  ]

63:                                               ; preds = %61
  br label %64

64:                                               ; preds = %63
  br label %65

65:                                               ; preds = %64
  br label %36, !llvm.loop !1359

66:                                               ; preds = %36
  store i32 0, ptr %3, align 4
  store i32 1, ptr %9, align 4
  br label %67

67:                                               ; preds = %66, %61, %31
  call void @llvm.lifetime.end.p0(i64 4, ptr %6) #11
  %68 = load i32, ptr %3, align 4
  ret i32 %68
}

; Function Attrs: nounwind uwtable
define internal i32 @cbs_h266_read_aud(ptr noundef %0, ptr noundef %1, ptr noundef %2) #0 {
  %4 = alloca i32, align 4
  %5 = alloca ptr, align 8
  %6 = alloca ptr, align 8
  %7 = alloca ptr, align 8
  %8 = alloca i32, align 4
  %9 = alloca i32, align 4
  %10 = alloca i32, align 4
  %11 = alloca i32, align 4
  store ptr %0, ptr %5, align 8, !tbaa !4
  store ptr %1, ptr %6, align 8, !tbaa !196
  store ptr %2, ptr %7, align 8, !tbaa !1328
  call void @llvm.lifetime.start.p0(i64 4, ptr %8) #11
  br label %12

12:                                               ; preds = %3
  %13 = load ptr, ptr %5, align 8, !tbaa !4
  call void @ff_cbs_trace_header(ptr noundef %13, ptr noundef @.str.207)
  br label %14

14:                                               ; preds = %12
  br label %15

15:                                               ; preds = %14
  br label %16

16:                                               ; preds = %15
  %17 = load ptr, ptr %5, align 8, !tbaa !4
  %18 = load ptr, ptr %6, align 8, !tbaa !196
  %19 = load ptr, ptr %7, align 8, !tbaa !1328
  %20 = getelementptr inbounds nuw %struct.H266RawAUD, ptr %19, i32 0, i32 0
  %21 = call i32 @cbs_h266_read_nal_unit_header(ptr noundef %17, ptr noundef %18, ptr noundef %20, i32 noundef 20)
  store i32 %21, ptr %8, align 4, !tbaa !11
  %22 = load i32, ptr %8, align 4, !tbaa !11
  %23 = icmp slt i32 %22, 0
  br i1 %23, label %24, label %26

24:                                               ; preds = %16
  %25 = load i32, ptr %8, align 4, !tbaa !11
  store i32 %25, ptr %4, align 4
  store i32 1, ptr %9, align 4
  br label %82

26:                                               ; preds = %16
  br label %27

27:                                               ; preds = %26
  br label %28

28:                                               ; preds = %27
  br label %29

29:                                               ; preds = %28
  call void @llvm.lifetime.start.p0(i64 4, ptr %10) #11
  br label %30

30:                                               ; preds = %29
  %31 = load ptr, ptr %5, align 8, !tbaa !4
  %32 = load ptr, ptr %6, align 8, !tbaa !196
  %33 = call i32 @ff_cbs_read_simple_unsigned(ptr noundef %31, ptr noundef %32, i32 noundef 1, ptr noundef @.str.1183, ptr noundef %10)
  store i32 %33, ptr %8, align 4, !tbaa !11
  %34 = load i32, ptr %8, align 4, !tbaa !11
  %35 = icmp slt i32 %34, 0
  br i1 %35, label %36, label %38

36:                                               ; preds = %30
  %37 = load i32, ptr %8, align 4, !tbaa !11
  store i32 %37, ptr %4, align 4
  store i32 1, ptr %9, align 4
  br label %45

38:                                               ; preds = %30
  br label %39

39:                                               ; preds = %38
  br label %40

40:                                               ; preds = %39
  %41 = load i32, ptr %10, align 4, !tbaa !11
  %42 = trunc i32 %41 to i8
  %43 = load ptr, ptr %7, align 8, !tbaa !1328
  %44 = getelementptr inbounds nuw %struct.H266RawAUD, ptr %43, i32 0, i32 1
  store i8 %42, ptr %44, align 1, !tbaa !1330
  store i32 0, ptr %9, align 4
  br label %45

45:                                               ; preds = %40, %36
  call void @llvm.lifetime.end.p0(i64 4, ptr %10) #11
  %46 = load i32, ptr %9, align 4
  switch i32 %46, label %82 [
    i32 0, label %47
  ]

47:                                               ; preds = %45
  br label %48

48:                                               ; preds = %47
  br label %49

49:                                               ; preds = %48
  br label %50

50:                                               ; preds = %49
  call void @llvm.lifetime.start.p0(i64 4, ptr %11) #11
  br label %51

51:                                               ; preds = %50
  %52 = load ptr, ptr %5, align 8, !tbaa !4
  %53 = load ptr, ptr %6, align 8, !tbaa !196
  %54 = call i32 @ff_cbs_read_unsigned(ptr noundef %52, ptr noundef %53, i32 noundef 3, ptr noundef @.str.1184, ptr noundef null, ptr noundef %11, i32 noundef 0, i32 noundef 2)
  store i32 %54, ptr %8, align 4, !tbaa !11
  %55 = load i32, ptr %8, align 4, !tbaa !11
  %56 = icmp slt i32 %55, 0
  br i1 %56, label %57, label %59

57:                                               ; preds = %51
  %58 = load i32, ptr %8, align 4, !tbaa !11
  store i32 %58, ptr %4, align 4
  store i32 1, ptr %9, align 4
  br label %66

59:                                               ; preds = %51
  br label %60

60:                                               ; preds = %59
  br label %61

61:                                               ; preds = %60
  %62 = load i32, ptr %11, align 4, !tbaa !11
  %63 = trunc i32 %62 to i8
  %64 = load ptr, ptr %7, align 8, !tbaa !1328
  %65 = getelementptr inbounds nuw %struct.H266RawAUD, ptr %64, i32 0, i32 2
  store i8 %63, ptr %65, align 1, !tbaa !1332
  store i32 0, ptr %9, align 4
  br label %66

66:                                               ; preds = %61, %57
  call void @llvm.lifetime.end.p0(i64 4, ptr %11) #11
  %67 = load i32, ptr %9, align 4
  switch i32 %67, label %82 [
    i32 0, label %68
  ]

68:                                               ; preds = %66
  br label %69

69:                                               ; preds = %68
  br label %70

70:                                               ; preds = %69
  br label %71

71:                                               ; preds = %70
  %72 = load ptr, ptr %5, align 8, !tbaa !4
  %73 = load ptr, ptr %6, align 8, !tbaa !196
  %74 = call i32 @cbs_h266_read_rbsp_trailing_bits(ptr noundef %72, ptr noundef %73)
  store i32 %74, ptr %8, align 4, !tbaa !11
  %75 = load i32, ptr %8, align 4, !tbaa !11
  %76 = icmp slt i32 %75, 0
  br i1 %76, label %77, label %79

77:                                               ; preds = %71
  %78 = load i32, ptr %8, align 4, !tbaa !11
  store i32 %78, ptr %4, align 4
  store i32 1, ptr %9, align 4
  br label %82

79:                                               ; preds = %71
  br label %80

80:                                               ; preds = %79
  br label %81

81:                                               ; preds = %80
  store i32 0, ptr %4, align 4
  store i32 1, ptr %9, align 4
  br label %82

82:                                               ; preds = %81, %77, %66, %45, %24
  call void @llvm.lifetime.end.p0(i64 4, ptr %8) #11
  %83 = load i32, ptr %4, align 4
  ret i32 %83
}