; Function Attrs: nounwind uwtable
define internal fastcc range(i32 -2147483648, 1) i32 @cbs_h266_read_aud(ptr noundef %0, ptr noundef nonnull %1, ptr noundef writeonly captures(none) %2) unnamed_addr #0 {
  %4 = alloca i32, align 4
  %5 = alloca i32, align 4
  %6 = alloca i32, align 4
  %7 = alloca i32, align 4
  tail call void @ff_cbs_trace_header(ptr noundef %0, ptr noundef nonnull @.str.207) #11
  %8 = tail call fastcc i32 @cbs_h266_read_nal_unit_header(ptr noundef %0, ptr noundef %1, ptr noundef %2, i32 noundef 20)
  %9 = icmp slt i32 %8, 0
  br i1 %9, label %cbs_h266_read_rbsp_trailing_bits.exit, label %10

10:                                               ; preds = %3
  call void @llvm.lifetime.start.p0(i64 4, ptr nonnull %6) #11
  %11 = call i32 @ff_cbs_read_simple_unsigned(ptr noundef %0, ptr noundef nonnull %1, i32 noundef 1, ptr noundef nonnull @.str.1183, ptr noundef nonnull %6) #11
  %12 = icmp sgt i32 %11, -1
  br i1 %12, label %13, label %.critedge

13:                                               ; preds = %10
  %14 = load i32, ptr %6, align 4, !tbaa !63
  %15 = trunc i32 %14 to i8
  %16 = getelementptr inbounds nuw i8, ptr %2, i64 4
  store i8 %15, ptr %16, align 1, !tbaa !815
  call void @llvm.lifetime.end.p0(i64 4, ptr nonnull %6) #11
  call void @llvm.lifetime.start.p0(i64 4, ptr nonnull %7) #11
  %17 = call i32 @ff_cbs_read_unsigned(ptr noundef %0, ptr noundef nonnull %1, i32 noundef 3, ptr noundef nonnull @.str.1184, ptr noundef null, ptr noundef nonnull %7, i32 noundef 0, i32 noundef 2) #11
  %18 = icmp sgt i32 %17, -1
  br i1 %18, label %20, label %19

19:                                               ; preds = %13
  call void @llvm.lifetime.end.p0(i64 4, ptr nonnull %7) #11
  br label %cbs_h266_read_rbsp_trailing_bits.exit

20:                                               ; preds = %13
  %21 = load i32, ptr %7, align 4, !tbaa !63
  %22 = trunc i32 %21 to i8
  %23 = getelementptr inbounds nuw i8, ptr %2, i64 5
  store i8 %22, ptr %23, align 1, !tbaa !817
  call void @llvm.lifetime.end.p0(i64 4, ptr nonnull %7) #11
  call void @llvm.lifetime.start.p0(i64 4, ptr nonnull %4) #11
  %24 = call i32 @ff_cbs_read_unsigned(ptr noundef %0, ptr noundef nonnull %1, i32 noundef 1, ptr noundef nonnull @.str.112, ptr noundef null, ptr noundef nonnull %4, i32 noundef 1, i32 noundef 1) #11
  %25 = icmp sgt i32 %24, -1
  call void @llvm.lifetime.end.p0(i64 4, ptr nonnull %4) #11
  br i1 %25, label %.preheader.i, label %cbs_h266_read_rbsp_trailing_bits.exit

.preheader.i:                                     ; preds = %20
  %26 = getelementptr i8, ptr %1, i64 16
  br label %27

27:                                               ; preds = %29, %.preheader.i
  %.val.i = load i32, ptr %26, align 8, !tbaa !60
  %28 = and i32 %.val.i, 7
  %.not.i = icmp eq i32 %28, 0
  br i1 %.not.i, label %cbs_h266_read_rbsp_trailing_bits.exit, label %29

29:                                               ; preds = %27
  call void @llvm.lifetime.start.p0(i64 4, ptr nonnull %5) #11
  %30 = call i32 @ff_cbs_read_unsigned(ptr noundef %0, ptr noundef nonnull %1, i32 noundef 1, ptr noundef nonnull @.str.113, ptr noundef null, ptr noundef nonnull %5, i32 noundef 0, i32 noundef 0) #11
  %31 = icmp sgt i32 %30, -1
  call void @llvm.lifetime.end.p0(i64 4, ptr nonnull %5) #11
  br i1 %31, label %27, label %cbs_h266_read_rbsp_trailing_bits.exit, !llvm.loop !484

.critedge:                                        ; preds = %10
  call void @llvm.lifetime.end.p0(i64 4, ptr nonnull %6) #11
  br label %cbs_h266_read_rbsp_trailing_bits.exit

cbs_h266_read_rbsp_trailing_bits.exit:            ; preds = %27, %29, %20, %19, %.critedge, %3
  %.023 = phi i32 [ %17, %19 ], [ %8, %3 ], [ %11, %.critedge ], [ %24, %20 ], [ %30, %29 ], [ 0, %27 ]
  ret i32 %.023
}